liblxqt-globalkeys-ui.so.0:_ZN16ShortcutSelector11qt_metacallEN11QMetaObject4CallEiPPv
liblxqt-globalkeys-ui.so.0:_ZN16ShortcutSelector11qt_metacastEPKc
liblxqt-globalkeys-ui.so.0:_ZN16ShortcutSelector12grabShortcutEi
liblxqt-globalkeys-ui.so.0:_ZN16ShortcutSelector13addMenuActionERK7QString
liblxqt-globalkeys-ui.so.0:_ZN16ShortcutSelector15shortcutGrabbedERK7QString
liblxqt-globalkeys-ui.so.0:_ZN16ShortcutSelector17grabShortcut_failEv
liblxqt-globalkeys-ui.so.0:_ZN16ShortcutSelector18newShortcutGrabbedERK7QString
liblxqt-globalkeys-ui.so.0:_ZN16ShortcutSelector21shortcutTimer_timeoutEv
liblxqt-globalkeys-ui.so.0:_ZN16ShortcutSelector5clearEv
liblxqt-globalkeys-ui.so.0:_ZN16ShortcutSelector9cancelNowEv
liblxqt-globalkeys-ui.so.0:_ZN16ShortcutSelectorC1EP7QWidget
liblxqt-globalkeys-ui.so.0:_ZN16ShortcutSelectorC2EP7QWidget
liblxqt-globalkeys-ui.so.0:_ZNK16ShortcutSelector10isGrabbingEv
liblxqt-globalkeys-ui.so.0:_ZNK16ShortcutSelector10metaObjectEv
liblxqt-globalkeys.so.0:_ZN17GlobalKeyShortcut6Action11qt_metacallEN11QMetaObject4CallEiPPv
liblxqt-globalkeys.so.0:_ZN17GlobalKeyShortcut6Action11qt_metacastEPKc
liblxqt-globalkeys.so.0:_ZN17GlobalKeyShortcut6Action14changeShortcutERK7QString
liblxqt-globalkeys.so.0:_ZN17GlobalKeyShortcut6Action15shortcutChangedERK7QStringS3_
liblxqt-globalkeys.so.0:_ZN17GlobalKeyShortcut6Action17changeDescriptionERK7QString
liblxqt-globalkeys.so.0:_ZN17GlobalKeyShortcut6Action20registrationFinishedEv
liblxqt-globalkeys.so.0:_ZN17GlobalKeyShortcut6Action9activatedEv
liblxqt-globalkeys.so.0:_ZN17GlobalKeyShortcut6ActionC1EP7QObject
liblxqt-globalkeys.so.0:_ZN17GlobalKeyShortcut6ActionC2EP7QObject
liblxqt-globalkeys.so.0:_ZN17GlobalKeyShortcut6ActionD0Ev
liblxqt-globalkeys.so.0:_ZN17GlobalKeyShortcut6ActionD1Ev
liblxqt-globalkeys.so.0:_ZN17GlobalKeyShortcut6ActionD2Ev
liblxqt-globalkeys.so.0:_ZN17GlobalKeyShortcut6Client11qt_metacallEN11QMetaObject4CallEiPPv
liblxqt-globalkeys.so.0:_ZN17GlobalKeyShortcut6Client11qt_metacastEPKc
liblxqt-globalkeys.so.0:_ZN17GlobalKeyShortcut6Client12grabShortcutEj
liblxqt-globalkeys.so.0:_ZN17GlobalKeyShortcut6Client12removeActionERK7QString
liblxqt-globalkeys.so.0:_ZN17GlobalKeyShortcut6Client14daemonAppearedEv
liblxqt-globalkeys.so.0:_ZN17GlobalKeyShortcut6Client15shortcutGrabbedERK7QString
liblxqt-globalkeys.so.0:_ZN17GlobalKeyShortcut6Client17daemonDisappearedEv
liblxqt-globalkeys.so.0:_ZN17GlobalKeyShortcut6Client18cancelShortcutGrabEv
liblxqt-globalkeys.so.0:_ZN17GlobalKeyShortcut6Client18grabShortcutFailedEv
liblxqt-globalkeys.so.0:_ZN17GlobalKeyShortcut6Client20grabShortcutTimedoutEv
liblxqt-globalkeys.so.0:_ZN17GlobalKeyShortcut6Client21daemonPresenceChangedEb
liblxqt-globalkeys.so.0:_ZN17GlobalKeyShortcut6Client21grabShortcutCancelledEv
liblxqt-globalkeys.so.0:_ZN17GlobalKeyShortcut6Client8instanceEv
liblxqt-globalkeys.so.0:_ZN17GlobalKeyShortcut6Client9addActionERK7QStringS3_S3_P7QObject
liblxqt-globalkeys.so.0:_ZN17GlobalKeyShortcut6ClientC1Ev
liblxqt-globalkeys.so.0:_ZN17GlobalKeyShortcut6ClientC2Ev
liblxqt-globalkeys.so.0:_ZN17GlobalKeyShortcut6ClientD0Ev
liblxqt-globalkeys.so.0:_ZN17GlobalKeyShortcut6ClientD1Ev
liblxqt-globalkeys.so.0:_ZN17GlobalKeyShortcut6ClientD2Ev
liblxqt-globalkeys.so.0:_ZNK17GlobalKeyShortcut6Action10metaObjectEv
liblxqt-globalkeys.so.0:_ZNK17GlobalKeyShortcut6Action11descriptionEv
liblxqt-globalkeys.so.0:_ZNK17GlobalKeyShortcut6Action4pathEv
liblxqt-globalkeys.so.0:_ZNK17GlobalKeyShortcut6Action7isValidEv
liblxqt-globalkeys.so.0:_ZNK17GlobalKeyShortcut6Action8shortcutEv
liblxqt-globalkeys.so.0:_ZNK17GlobalKeyShortcut6Client10metaObjectEv
liblxqt-globalkeys.so.0:_ZNK17GlobalKeyShortcut6Client15isDaemonPresentEv
